
image:     file format elf64-littleriscv


Disassembly of section .text:

0000000080000000 <_start>:
    80000000:	f14022f3          	csrr	t0,mhartid
    80000004:	02029263          	bnez	t0,80000028 <finish>
    80000008:	00083117          	auipc	sp,0x83
    8000000c:	02810113          	add	sp,sp,40 # 80083030 <_heap_start>
    80000010:	00001197          	auipc	gp,0x1
    80000014:	1d418193          	add	gp,gp,468 # 800011e4 <_global_pointer>
    80000018:	00001297          	auipc	t0,0x1
    8000001c:	e9c28293          	add	t0,t0,-356 # 80000eb4 <trap>
    80000020:	30529073          	csrw	mtvec,t0
    80000024:	134010ef          	jal	80001158 <kernel_main>

0000000080000028 <finish>:
    80000028:	000000ef          	jal	80000028 <finish>

000000008000002c <lputs>:
    8000002c:	100002b7          	lui	t0,0x10000

0000000080000030 <it>:
    80000030:	00054303          	lbu	t1,0(a0)
    80000034:	00030863          	beqz	t1,80000044 <rt>
    80000038:	00628023          	sb	t1,0(t0) # 10000000 <_heap_size+0x83030>
    8000003c:	00150513          	add	a0,a0,1
    80000040:	ff1ff06f          	j	80000030 <it>

0000000080000044 <rt>:
    80000044:	00008067          	ret

0000000080000048 <supervisor_asm_trap>:
    80000048:	fd810113          	add	sp,sp,-40
    8000004c:	02113023          	sd	ra,32(sp)
    80000050:	00a13c23          	sd	a0,24(sp)
    80000054:	00513823          	sd	t0,16(sp)
    80000058:	00613423          	sd	t1,8(sp)
    8000005c:	00713023          	sd	t2,0(sp)
    80000060:	12300513          	li	a0,291
    80000064:	00000073          	ecall
    80000068:	00000517          	auipc	a0,0x0
    8000006c:	1d350513          	add	a0,a0,467 # 8000023b <stimera>
    80000070:	fbdff0ef          	jal	8000002c <lputs>
    80000074:	02013083          	ld	ra,32(sp)
    80000078:	01813503          	ld	a0,24(sp)
    8000007c:	01013283          	ld	t0,16(sp)
    80000080:	00813303          	ld	t1,8(sp)
    80000084:	00013383          	ld	t2,0(sp)
    80000088:	02810113          	add	sp,sp,40
    8000008c:	10200073          	sret

0000000080000090 <asm_machine_trap>:
    80000090:	fd810113          	add	sp,sp,-40
    80000094:	02113023          	sd	ra,32(sp)
    80000098:	00a13c23          	sd	a0,24(sp)
    8000009c:	00513823          	sd	t0,16(sp)
    800000a0:	00613423          	sd	t1,8(sp)
    800000a4:	00713023          	sd	t2,0(sp)
    800000a8:	342022f3          	csrr	t0,mcause
    800000ac:	0ff2f293          	zext.b	t0,t0
    800000b0:	00700393          	li	t2,7
    800000b4:	04729c63          	bne	t0,t2,8000010c <not_timer>

00000000800000b8 <timer>:
    800000b8:	00000517          	auipc	a0,0x0
    800000bc:	17c50513          	add	a0,a0,380 # 80000234 <timera>
    800000c0:	f6dff0ef          	jal	8000002c <lputs>
    800000c4:	02000293          	li	t0,32
    800000c8:	3042a073          	csrs	mie,t0
    800000cc:	3442a073          	csrs	mip,t0
    800000d0:	020042b7          	lui	t0,0x2004
    800000d4:	02faf337          	lui	t1,0x2faf
    800000d8:	0803031b          	addw	t1,t1,128 # 2faf080 <_heap_size-0xcfcdf50>
    800000dc:	0200c3b7          	lui	t2,0x200c
    800000e0:	ff83839b          	addw	t2,t2,-8 # 200bff8 <_heap_size-0xdf70fd8>
    800000e4:	0003b383          	ld	t2,0(t2)
    800000e8:	006383b3          	add	t2,t2,t1
    800000ec:	0072b023          	sd	t2,0(t0) # 2004000 <_heap_size-0xdf78fd0>
    800000f0:	02013083          	ld	ra,32(sp)
    800000f4:	01813503          	ld	a0,24(sp)
    800000f8:	01013283          	ld	t0,16(sp)
    800000fc:	00813303          	ld	t1,8(sp)
    80000100:	00013383          	ld	t2,0(sp)
    80000104:	02810113          	add	sp,sp,40
    80000108:	30200073          	mret

000000008000010c <not_timer>:
    8000010c:	00900293          	li	t0,9
    80000110:	34202373          	csrr	t1,mcause
    80000114:	02531a63          	bne	t1,t0,80000148 <not_sbi_call>
    80000118:	12300313          	li	t1,291
    8000011c:	00650463          	beq	a0,t1,80000124 <sbi_clear_timer>
    80000120:	0280006f          	j	80000148 <not_sbi_call>

0000000080000124 <sbi_clear_timer>:
    80000124:	00000517          	auipc	a0,0x0
    80000128:	12f50513          	add	a0,a0,303 # 80000253 <clear_timer>
    8000012c:	f01ff0ef          	jal	8000002c <lputs>
    80000130:	02000293          	li	t0,32
    80000134:	3442b073          	csrc	mip,t0
    80000138:	3042b073          	csrc	mie,t0
    8000013c:	341022f3          	csrr	t0,mepc
    80000140:	00428293          	add	t0,t0,4
    80000144:	34129073          	csrw	mepc,t0

0000000080000148 <not_sbi_call>:
    80000148:	02013083          	ld	ra,32(sp)
    8000014c:	01813503          	ld	a0,24(sp)
    80000150:	01013283          	ld	t0,16(sp)
    80000154:	00813303          	ld	t1,8(sp)
    80000158:	00013383          	ld	t2,0(sp)
    8000015c:	02810113          	add	sp,sp,40
    80000160:	30200073          	mret

0000000080000164 <supervisor_mode>:
    80000164:	000012b7          	lui	t0,0x1
    80000168:	8022829b          	addw	t0,t0,-2046 # 802 <_heap_size-0xff7c7ce>
    8000016c:	01f00313          	li	t1,31
    80000170:	3a031073          	csrw	pmpcfg0,t1
    80000174:	fff00313          	li	t1,-1
    80000178:	3b031073          	csrw	pmpaddr0,t1
    8000017c:	30029073          	csrw	mstatus,t0
    80000180:	00001317          	auipc	t1,0x1
    80000184:	f0230313          	add	t1,t1,-254 # 80001082 <strap>
    80000188:	10531073          	csrw	stvec,t1
    8000018c:	0a000313          	li	t1,160
    80000190:	30432073          	csrs	mie,t1
    80000194:	02000313          	li	t1,32
    80000198:	30332073          	csrs	mideleg,t1
    8000019c:	020042b7          	lui	t0,0x2004
    800001a0:	004c5337          	lui	t1,0x4c5
    800001a4:	b403031b          	addw	t1,t1,-1216 # 4c4b40 <_heap_size-0xfab8490>
    800001a8:	0062b023          	sd	t1,0(t0) # 2004000 <_heap_size-0xdf78fd0>
    800001ac:	00000317          	auipc	t1,0x0
    800001b0:	01030313          	add	t1,t1,16 # 800001bc <spv>
    800001b4:	34131073          	csrw	mepc,t1
    800001b8:	30200073          	mret

00000000800001bc <spv>:
    800001bc:	00001317          	auipc	t1,0x1
    800001c0:	ec630313          	add	t1,t1,-314 # 80001082 <strap>
    800001c4:	10531073          	csrw	stvec,t1
    800001c8:	7b90006f          	j	80001180 <supervisor_m>

00000000800001cc <HEAP_SIZE>:
    800001cc:	0ff7cfd0          	.word	0x0ff7cfd0
    800001d0:	00000000          	.word	0x00000000

00000000800001d4 <HEAP_START>:
    800001d4:	80083030          	.word	0x80083030
    800001d8:	00000000          	.word	0x00000000

00000000800001dc <BSS_START>:
    800001dc:	80003010          	.word	0x80003010
    800001e0:	00000000          	.word	0x00000000

00000000800001e4 <BSS_END>:
    800001e4:	80003030          	.word	0x80003030
    800001e8:	00000000          	.word	0x00000000

00000000800001ec <RODATA_START>:
    800001ec:	80002000          	.word	0x80002000
    800001f0:	00000000          	.word	0x00000000

00000000800001f4 <RODATA_END>:
    800001f4:	8000214c          	.word	0x8000214c
    800001f8:	00000000          	.word	0x00000000

00000000800001fc <DATA_START>:
    800001fc:	80003000          	.word	0x80003000
    80000200:	00000000          	.word	0x00000000

0000000080000204 <DATA_END>:
    80000204:	80003010          	.word	0x80003010
    80000208:	00000000          	.word	0x00000000

000000008000020c <TEXT_START>:
    8000020c:	80000000          	.word	0x80000000
    80000210:	00000000          	.word	0x00000000

0000000080000214 <TEXT_END>:
    80000214:	800011e4          	.word	0x800011e4
    80000218:	00000000          	.word	0x00000000

000000008000021c <STACK>:
    8000021c:	80083030          	.word	0x80083030
    80000220:	00000000          	.word	0x00000000

0000000080000224 <MEMORY_END>:
    80000224:	90000000          	.word	0x90000000
    80000228:	00000000          	.word	0x00000000

000000008000022c <MEMORY_START>:
    8000022c:	80000000          	.word	0x80000000
    80000230:	00000000          	.word	0x00000000

0000000080000234 <timera>:
    80000234:	656d6954          	.word	0x656d6954
    80000238:	           	Address 0x80000238 is out of bounds.


000000008000023b <stimera>:
    8000023b:	65707553          	.word	0x65707553
    8000023f:	73697672          	.word	0x73697672
    80000243:	7420726f          	.word	0x7420726f
    80000247:	72656d69          	.word	0x72656d69
    8000024b:	           	Address 0x8000024b is out of bounds.


000000008000024d <fail>:
    8000024d:	4c494146          	.word	0x4c494146
    80000251:	           	Address 0x80000251 is out of bounds.


0000000080000253 <clear_timer>:
    80000253:	61656c43          	.word	0x61656c43
    80000257:	69742072          	.word	0x69742072
    8000025b:	0a72656d          	.word	0x0a72656d
	...

0000000080000260 <newline>:
    80000260:	000a                	.short	0x000a
	...

0000000080000264 <get_heap_size>:
    80000264:	1141                	add	sp,sp,-16
    80000266:	e422                	sd	s0,8(sp)
    80000268:	0800                	add	s0,sp,16
    8000026a:	00000797          	auipc	a5,0x0
    8000026e:	f6278793          	add	a5,a5,-158 # 800001cc <HEAP_SIZE>
    80000272:	639c                	ld	a5,0(a5)
    80000274:	17c2                	sll	a5,a5,0x30
    80000276:	93c1                	srl	a5,a5,0x30
    80000278:	853e                	mv	a0,a5
    8000027a:	6422                	ld	s0,8(sp)
    8000027c:	0141                	add	sp,sp,16
    8000027e:	8082                	ret

0000000080000280 <floor_page>:
    80000280:	1101                	add	sp,sp,-32
    80000282:	ec22                	sd	s0,24(sp)
    80000284:	1000                	add	s0,sp,32
    80000286:	fea43423          	sd	a0,-24(s0)
    8000028a:	fe843703          	ld	a4,-24(s0)
    8000028e:	77fd                	lui	a5,0xfffff
    80000290:	8ff9                	and	a5,a5,a4
    80000292:	853e                	mv	a0,a5
    80000294:	6462                	ld	s0,24(sp)
    80000296:	6105                	add	sp,sp,32
    80000298:	8082                	ret

000000008000029a <ceil_page>:
    8000029a:	1101                	add	sp,sp,-32
    8000029c:	ec22                	sd	s0,24(sp)
    8000029e:	1000                	add	s0,sp,32
    800002a0:	fea43423          	sd	a0,-24(s0)
    800002a4:	fe843703          	ld	a4,-24(s0)
    800002a8:	6785                	lui	a5,0x1
    800002aa:	17fd                	add	a5,a5,-1 # fff <_heap_size-0xff7bfd1>
    800002ac:	973e                	add	a4,a4,a5
    800002ae:	77fd                	lui	a5,0xfffff
    800002b0:	8ff9                	and	a5,a5,a4
    800002b2:	853e                	mv	a0,a5
    800002b4:	6462                	ld	s0,24(sp)
    800002b6:	6105                	add	sp,sp,32
    800002b8:	8082                	ret

00000000800002ba <init_pages>:
    800002ba:	1101                	add	sp,sp,-32
    800002bc:	ec06                	sd	ra,24(sp)
    800002be:	e822                	sd	s0,16(sp)
    800002c0:	1000                	add	s0,sp,32
    800002c2:	00000797          	auipc	a5,0x0
    800002c6:	f0a78793          	add	a5,a5,-246 # 800001cc <HEAP_SIZE>
    800002ca:	639c                	ld	a5,0(a5)
    800002cc:	853e                	mv	a0,a5
    800002ce:	fcdff0ef          	jal	8000029a <ceil_page>
    800002d2:	87aa                	mv	a5,a0
    800002d4:	00c7d713          	srl	a4,a5,0xc
    800002d8:	00003797          	auipc	a5,0x3
    800002dc:	d4078793          	add	a5,a5,-704 # 80003018 <pages_count>
    800002e0:	e398                	sd	a4,0(a5)
    800002e2:	00003797          	auipc	a5,0x3
    800002e6:	d3678793          	add	a5,a5,-714 # 80003018 <pages_count>
    800002ea:	6398                	ld	a4,0(a5)
    800002ec:	6785                	lui	a5,0x1
    800002ee:	17fd                	add	a5,a5,-1 # fff <_heap_size-0xff7bfd1>
    800002f0:	97ba                	add	a5,a5,a4
    800002f2:	00c7d713          	srl	a4,a5,0xc
    800002f6:	00003797          	auipc	a5,0x3
    800002fa:	d2a78793          	add	a5,a5,-726 # 80003020 <first_page>
    800002fe:	e398                	sd	a4,0(a5)
    80000300:	00000797          	auipc	a5,0x0
    80000304:	ed478793          	add	a5,a5,-300 # 800001d4 <HEAP_START>
    80000308:	639c                	ld	a5,0(a5)
    8000030a:	853e                	mv	a0,a5
    8000030c:	f8fff0ef          	jal	8000029a <ceil_page>
    80000310:	872a                	mv	a4,a0
    80000312:	00003797          	auipc	a5,0x3
    80000316:	d1678793          	add	a5,a5,-746 # 80003028 <alloc_addr>
    8000031a:	e398                	sd	a4,0(a5)
    8000031c:	fe042623          	sw	zero,-20(s0)
    80000320:	a099                	j	80000366 <init_pages+0xac>
    80000322:	fec46703          	lwu	a4,-20(s0)
    80000326:	00000797          	auipc	a5,0x0
    8000032a:	eae78793          	add	a5,a5,-338 # 800001d4 <HEAP_START>
    8000032e:	639c                	ld	a5,0(a5)
    80000330:	97ba                	add	a5,a5,a4
    80000332:	fef43023          	sd	a5,-32(s0)
    80000336:	fec46703          	lwu	a4,-20(s0)
    8000033a:	00003797          	auipc	a5,0x3
    8000033e:	ce678793          	add	a5,a5,-794 # 80003020 <first_page>
    80000342:	639c                	ld	a5,0(a5)
    80000344:	00f77863          	bgeu	a4,a5,80000354 <init_pages+0x9a>
    80000348:	fe043783          	ld	a5,-32(s0)
    8000034c:	577d                	li	a4,-1
    8000034e:	00e78023          	sb	a4,0(a5)
    80000352:	a029                	j	8000035c <init_pages+0xa2>
    80000354:	fe043783          	ld	a5,-32(s0)
    80000358:	00078023          	sb	zero,0(a5)
    8000035c:	fec42783          	lw	a5,-20(s0)
    80000360:	2785                	addw	a5,a5,1
    80000362:	fef42623          	sw	a5,-20(s0)
    80000366:	fec46703          	lwu	a4,-20(s0)
    8000036a:	00003797          	auipc	a5,0x3
    8000036e:	cae78793          	add	a5,a5,-850 # 80003018 <pages_count>
    80000372:	639c                	ld	a5,0(a5)
    80000374:	faf767e3          	bltu	a4,a5,80000322 <init_pages+0x68>
    80000378:	0001                	nop
    8000037a:	0001                	nop
    8000037c:	60e2                	ld	ra,24(sp)
    8000037e:	6442                	ld	s0,16(sp)
    80000380:	6105                	add	sp,sp,32
    80000382:	8082                	ret

0000000080000384 <addr_by_num>:
    80000384:	1101                	add	sp,sp,-32
    80000386:	ec22                	sd	s0,24(sp)
    80000388:	1000                	add	s0,sp,32
    8000038a:	fea43423          	sd	a0,-24(s0)
    8000038e:	00003797          	auipc	a5,0x3
    80000392:	c9a78793          	add	a5,a5,-870 # 80003028 <alloc_addr>
    80000396:	639c                	ld	a5,0(a5)
    80000398:	00c7d713          	srl	a4,a5,0xc
    8000039c:	fe843783          	ld	a5,-24(s0)
    800003a0:	97ba                	add	a5,a5,a4
    800003a2:	07b2                	sll	a5,a5,0xc
    800003a4:	853e                	mv	a0,a5
    800003a6:	6462                	ld	s0,24(sp)
    800003a8:	6105                	add	sp,sp,32
    800003aa:	8082                	ret

00000000800003ac <alloc_pages>:
    800003ac:	7139                	add	sp,sp,-64
    800003ae:	fc06                	sd	ra,56(sp)
    800003b0:	f822                	sd	s0,48(sp)
    800003b2:	0080                	add	s0,sp,64
    800003b4:	87aa                	mv	a5,a0
    800003b6:	fcf42623          	sw	a5,-52(s0)
    800003ba:	57fd                	li	a5,-1
    800003bc:	fef42423          	sw	a5,-24(s0)
    800003c0:	fe042223          	sw	zero,-28(s0)
    800003c4:	00003797          	auipc	a5,0x3
    800003c8:	c5c78793          	add	a5,a5,-932 # 80003020 <first_page>
    800003cc:	639c                	ld	a5,0(a5)
    800003ce:	fef42623          	sw	a5,-20(s0)
    800003d2:	a0a5                	j	8000043a <alloc_pages+0x8e>
    800003d4:	fec42703          	lw	a4,-20(s0)
    800003d8:	00000797          	auipc	a5,0x0
    800003dc:	dfc78793          	add	a5,a5,-516 # 800001d4 <HEAP_START>
    800003e0:	639c                	ld	a5,0(a5)
    800003e2:	97ba                	add	a5,a5,a4
    800003e4:	fcf43c23          	sd	a5,-40(s0)
    800003e8:	fd843783          	ld	a5,-40(s0)
    800003ec:	0007c783          	lbu	a5,0(a5)
    800003f0:	c799                	beqz	a5,800003fe <alloc_pages+0x52>
    800003f2:	fe042223          	sw	zero,-28(s0)
    800003f6:	57fd                	li	a5,-1
    800003f8:	fef42423          	sw	a5,-24(s0)
    800003fc:	a815                	j	80000430 <alloc_pages+0x84>
    800003fe:	fe842783          	lw	a5,-24(s0)
    80000402:	0007871b          	sext.w	a4,a5
    80000406:	57fd                	li	a5,-1
    80000408:	00f71663          	bne	a4,a5,80000414 <alloc_pages+0x68>
    8000040c:	fec42783          	lw	a5,-20(s0)
    80000410:	fef42423          	sw	a5,-24(s0)
    80000414:	fe442783          	lw	a5,-28(s0)
    80000418:	2785                	addw	a5,a5,1
    8000041a:	fef42223          	sw	a5,-28(s0)
    8000041e:	fe442783          	lw	a5,-28(s0)
    80000422:	873e                	mv	a4,a5
    80000424:	fcc42783          	lw	a5,-52(s0)
    80000428:	2701                	sext.w	a4,a4
    8000042a:	2781                	sext.w	a5,a5
    8000042c:	02f75163          	bge	a4,a5,8000044e <alloc_pages+0xa2>
    80000430:	fec42783          	lw	a5,-20(s0)
    80000434:	2785                	addw	a5,a5,1
    80000436:	fef42623          	sw	a5,-20(s0)
    8000043a:	fec42703          	lw	a4,-20(s0)
    8000043e:	00003797          	auipc	a5,0x3
    80000442:	bda78793          	add	a5,a5,-1062 # 80003018 <pages_count>
    80000446:	639c                	ld	a5,0(a5)
    80000448:	f8f766e3          	bltu	a4,a5,800003d4 <alloc_pages+0x28>
    8000044c:	a011                	j	80000450 <alloc_pages+0xa4>
    8000044e:	0001                	nop
    80000450:	fe842783          	lw	a5,-24(s0)
    80000454:	0007871b          	sext.w	a4,a5
    80000458:	57fd                	li	a5,-1
    8000045a:	00f71463          	bne	a4,a5,80000462 <alloc_pages+0xb6>
    8000045e:	4785                	li	a5,1
    80000460:	a8a9                	j	800004ba <alloc_pages+0x10e>
    80000462:	fe842783          	lw	a5,-24(s0)
    80000466:	fef42623          	sw	a5,-20(s0)
    8000046a:	a02d                	j	80000494 <alloc_pages+0xe8>
    8000046c:	fec42703          	lw	a4,-20(s0)
    80000470:	00000797          	auipc	a5,0x0
    80000474:	d6478793          	add	a5,a5,-668 # 800001d4 <HEAP_START>
    80000478:	639c                	ld	a5,0(a5)
    8000047a:	97ba                	add	a5,a5,a4
    8000047c:	fcf43c23          	sd	a5,-40(s0)
    80000480:	fd843783          	ld	a5,-40(s0)
    80000484:	4705                	li	a4,1
    80000486:	00e78023          	sb	a4,0(a5)
    8000048a:	fec42783          	lw	a5,-20(s0)
    8000048e:	2785                	addw	a5,a5,1
    80000490:	fef42623          	sw	a5,-20(s0)
    80000494:	fe842783          	lw	a5,-24(s0)
    80000498:	873e                	mv	a4,a5
    8000049a:	fcc42783          	lw	a5,-52(s0)
    8000049e:	9fb9                	addw	a5,a5,a4
    800004a0:	0007871b          	sext.w	a4,a5
    800004a4:	fec42783          	lw	a5,-20(s0)
    800004a8:	2781                	sext.w	a5,a5
    800004aa:	fce7c1e3          	blt	a5,a4,8000046c <alloc_pages+0xc0>
    800004ae:	fe842783          	lw	a5,-24(s0)
    800004b2:	853e                	mv	a0,a5
    800004b4:	ed1ff0ef          	jal	80000384 <addr_by_num>
    800004b8:	87aa                	mv	a5,a0
    800004ba:	853e                	mv	a0,a5
    800004bc:	70e2                	ld	ra,56(sp)
    800004be:	7442                	ld	s0,48(sp)
    800004c0:	6121                	add	sp,sp,64
    800004c2:	8082                	ret

00000000800004c4 <free_pages>:
    800004c4:	7179                	add	sp,sp,-48
    800004c6:	f422                	sd	s0,40(sp)
    800004c8:	1800                	add	s0,sp,48
    800004ca:	fca43c23          	sd	a0,-40(s0)
    800004ce:	87ae                	mv	a5,a1
    800004d0:	fcf42a23          	sw	a5,-44(s0)
    800004d4:	fd843783          	ld	a5,-40(s0)
    800004d8:	83b1                	srl	a5,a5,0xc
    800004da:	0007871b          	sext.w	a4,a5
    800004de:	00000797          	auipc	a5,0x0
    800004e2:	cf678793          	add	a5,a5,-778 # 800001d4 <HEAP_START>
    800004e6:	6394                	ld	a3,0(a5)
    800004e8:	6785                	lui	a5,0x1
    800004ea:	17fd                	add	a5,a5,-1 # fff <_heap_size-0xff7bfd1>
    800004ec:	97b6                	add	a5,a5,a3
    800004ee:	83b1                	srl	a5,a5,0xc
    800004f0:	2781                	sext.w	a5,a5
    800004f2:	40f707bb          	subw	a5,a4,a5
    800004f6:	fef42423          	sw	a5,-24(s0)
    800004fa:	fe842783          	lw	a5,-24(s0)
    800004fe:	fef42623          	sw	a5,-20(s0)
    80000502:	a025                	j	8000052a <free_pages+0x66>
    80000504:	fec46703          	lwu	a4,-20(s0)
    80000508:	00000797          	auipc	a5,0x0
    8000050c:	ccc78793          	add	a5,a5,-820 # 800001d4 <HEAP_START>
    80000510:	639c                	ld	a5,0(a5)
    80000512:	97ba                	add	a5,a5,a4
    80000514:	fef43023          	sd	a5,-32(s0)
    80000518:	fe043783          	ld	a5,-32(s0)
    8000051c:	00078023          	sb	zero,0(a5)
    80000520:	fec42783          	lw	a5,-20(s0)
    80000524:	2785                	addw	a5,a5,1
    80000526:	fef42623          	sw	a5,-20(s0)
    8000052a:	fd442783          	lw	a5,-44(s0)
    8000052e:	fe842703          	lw	a4,-24(s0)
    80000532:	9fb9                	addw	a5,a5,a4
    80000534:	0007871b          	sext.w	a4,a5
    80000538:	fec42783          	lw	a5,-20(s0)
    8000053c:	2781                	sext.w	a5,a5
    8000053e:	fce7e3e3          	bltu	a5,a4,80000504 <free_pages+0x40>
    80000542:	0001                	nop
    80000544:	0001                	nop
    80000546:	7422                	ld	s0,40(sp)
    80000548:	6145                	add	sp,sp,48
    8000054a:	8082                	ret

000000008000054c <memset>:
    8000054c:	7139                	add	sp,sp,-64
    8000054e:	fc22                	sd	s0,56(sp)
    80000550:	0080                	add	s0,sp,64
    80000552:	fca43c23          	sd	a0,-40(s0)
    80000556:	87ae                	mv	a5,a1
    80000558:	fcc43423          	sd	a2,-56(s0)
    8000055c:	fcf40ba3          	sb	a5,-41(s0)
    80000560:	fd843783          	ld	a5,-40(s0)
    80000564:	fef43423          	sd	a5,-24(s0)
    80000568:	fe042223          	sw	zero,-28(s0)
    8000056c:	a00d                	j	8000058e <memset+0x42>
    8000056e:	fe843783          	ld	a5,-24(s0)
    80000572:	fd744703          	lbu	a4,-41(s0)
    80000576:	00e78023          	sb	a4,0(a5)
    8000057a:	fe843783          	ld	a5,-24(s0)
    8000057e:	0785                	add	a5,a5,1
    80000580:	fef43423          	sd	a5,-24(s0)
    80000584:	fe442783          	lw	a5,-28(s0)
    80000588:	2785                	addw	a5,a5,1
    8000058a:	fef42223          	sw	a5,-28(s0)
    8000058e:	fe446783          	lwu	a5,-28(s0)
    80000592:	fc843703          	ld	a4,-56(s0)
    80000596:	fce7ece3          	bltu	a5,a4,8000056e <memset+0x22>
    8000059a:	0001                	nop
    8000059c:	0001                	nop
    8000059e:	7462                	ld	s0,56(sp)
    800005a0:	6121                	add	sp,sp,64
    800005a2:	8082                	ret

00000000800005a4 <kmalloc>:
    800005a4:	7179                	add	sp,sp,-48
    800005a6:	f406                	sd	ra,40(sp)
    800005a8:	f022                	sd	s0,32(sp)
    800005aa:	1800                	add	s0,sp,48
    800005ac:	fca43c23          	sd	a0,-40(s0)
    800005b0:	fd843703          	ld	a4,-40(s0)
    800005b4:	6785                	lui	a5,0x1
    800005b6:	17fd                	add	a5,a5,-1 # fff <_heap_size-0xff7bfd1>
    800005b8:	97ba                	add	a5,a5,a4
    800005ba:	83b1                	srl	a5,a5,0xc
    800005bc:	fef407a3          	sb	a5,-17(s0)
    800005c0:	fef44783          	lbu	a5,-17(s0)
    800005c4:	2781                	sext.w	a5,a5
    800005c6:	853e                	mv	a0,a5
    800005c8:	de5ff0ef          	jal	800003ac <alloc_pages>
    800005cc:	87aa                	mv	a5,a0
    800005ce:	853e                	mv	a0,a5
    800005d0:	70a2                	ld	ra,40(sp)
    800005d2:	7402                	ld	s0,32(sp)
    800005d4:	6145                	add	sp,sp,48
    800005d6:	8082                	ret

00000000800005d8 <kzalloc>:
    800005d8:	7179                	add	sp,sp,-48
    800005da:	f406                	sd	ra,40(sp)
    800005dc:	f022                	sd	s0,32(sp)
    800005de:	1800                	add	s0,sp,48
    800005e0:	fca43c23          	sd	a0,-40(s0)
    800005e4:	fd843703          	ld	a4,-40(s0)
    800005e8:	6785                	lui	a5,0x1
    800005ea:	17fd                	add	a5,a5,-1 # fff <_heap_size-0xff7bfd1>
    800005ec:	97ba                	add	a5,a5,a4
    800005ee:	83b1                	srl	a5,a5,0xc
    800005f0:	fef407a3          	sb	a5,-17(s0)
    800005f4:	fef44783          	lbu	a5,-17(s0)
    800005f8:	2781                	sext.w	a5,a5
    800005fa:	853e                	mv	a0,a5
    800005fc:	db1ff0ef          	jal	800003ac <alloc_pages>
    80000600:	fea43023          	sd	a0,-32(s0)
    80000604:	fef44783          	lbu	a5,-17(s0)
    80000608:	2781                	sext.w	a5,a5
    8000060a:	00c7979b          	sllw	a5,a5,0xc
    8000060e:	2781                	sext.w	a5,a5
    80000610:	863e                	mv	a2,a5
    80000612:	4581                	li	a1,0
    80000614:	fe043503          	ld	a0,-32(s0)
    80000618:	f35ff0ef          	jal	8000054c <memset>
    8000061c:	fe043783          	ld	a5,-32(s0)
    80000620:	853e                	mv	a0,a5
    80000622:	70a2                	ld	ra,40(sp)
    80000624:	7402                	ld	s0,32(sp)
    80000626:	6145                	add	sp,sp,48
    80000628:	8082                	ret

000000008000062a <kfree>:
    8000062a:	7179                	add	sp,sp,-48
    8000062c:	f406                	sd	ra,40(sp)
    8000062e:	f022                	sd	s0,32(sp)
    80000630:	1800                	add	s0,sp,48
    80000632:	fca43c23          	sd	a0,-40(s0)
    80000636:	fcb43823          	sd	a1,-48(s0)
    8000063a:	fd043703          	ld	a4,-48(s0)
    8000063e:	6785                	lui	a5,0x1
    80000640:	17fd                	add	a5,a5,-1 # fff <_heap_size-0xff7bfd1>
    80000642:	97ba                	add	a5,a5,a4
    80000644:	83b1                	srl	a5,a5,0xc
    80000646:	fef407a3          	sb	a5,-17(s0)
    8000064a:	fef44783          	lbu	a5,-17(s0)
    8000064e:	2781                	sext.w	a5,a5
    80000650:	85be                	mv	a1,a5
    80000652:	fd843503          	ld	a0,-40(s0)
    80000656:	e6fff0ef          	jal	800004c4 <free_pages>
    8000065a:	0001                	nop
    8000065c:	70a2                	ld	ra,40(sp)
    8000065e:	7402                	ld	s0,32(sp)
    80000660:	6145                	add	sp,sp,48
    80000662:	8082                	ret

0000000080000664 <entry_is_allocated>:
    80000664:	1101                	add	sp,sp,-32
    80000666:	ec22                	sd	s0,24(sp)
    80000668:	1000                	add	s0,sp,32
    8000066a:	fea43423          	sd	a0,-24(s0)
    8000066e:	fe843783          	ld	a5,-24(s0)
    80000672:	0007c703          	lbu	a4,0(a5)
    80000676:	0017c683          	lbu	a3,1(a5)
    8000067a:	06a2                	sll	a3,a3,0x8
    8000067c:	8f55                	or	a4,a4,a3
    8000067e:	0027c683          	lbu	a3,2(a5)
    80000682:	06c2                	sll	a3,a3,0x10
    80000684:	8f55                	or	a4,a4,a3
    80000686:	0037c683          	lbu	a3,3(a5)
    8000068a:	06e2                	sll	a3,a3,0x18
    8000068c:	8f55                	or	a4,a4,a3
    8000068e:	0047c683          	lbu	a3,4(a5)
    80000692:	1682                	sll	a3,a3,0x20
    80000694:	8f55                	or	a4,a4,a3
    80000696:	0057c683          	lbu	a3,5(a5)
    8000069a:	16a2                	sll	a3,a3,0x28
    8000069c:	8f55                	or	a4,a4,a3
    8000069e:	0067c683          	lbu	a3,6(a5)
    800006a2:	16c2                	sll	a3,a3,0x30
    800006a4:	8f55                	or	a4,a4,a3
    800006a6:	0077c783          	lbu	a5,7(a5)
    800006aa:	17e2                	sll	a5,a5,0x38
    800006ac:	8fd9                	or	a5,a5,a4
    800006ae:	2781                	sext.w	a5,a5
    800006b0:	8b85                	and	a5,a5,1
    800006b2:	2781                	sext.w	a5,a5
    800006b4:	853e                	mv	a0,a5
    800006b6:	6462                	ld	s0,24(sp)
    800006b8:	6105                	add	sp,sp,32
    800006ba:	8082                	ret

00000000800006bc <get_next_entry>:
    800006bc:	7179                	add	sp,sp,-48
    800006be:	f422                	sd	s0,40(sp)
    800006c0:	1800                	add	s0,sp,48
    800006c2:	fca43c23          	sd	a0,-40(s0)
    800006c6:	fd843783          	ld	a5,-40(s0)
    800006ca:	0007c703          	lbu	a4,0(a5)
    800006ce:	0017c683          	lbu	a3,1(a5)
    800006d2:	06a2                	sll	a3,a3,0x8
    800006d4:	8f55                	or	a4,a4,a3
    800006d6:	0027c683          	lbu	a3,2(a5)
    800006da:	06c2                	sll	a3,a3,0x10
    800006dc:	8f55                	or	a4,a4,a3
    800006de:	0037c683          	lbu	a3,3(a5)
    800006e2:	06e2                	sll	a3,a3,0x18
    800006e4:	8f55                	or	a4,a4,a3
    800006e6:	0047c683          	lbu	a3,4(a5)
    800006ea:	1682                	sll	a3,a3,0x20
    800006ec:	8f55                	or	a4,a4,a3
    800006ee:	0057c683          	lbu	a3,5(a5)
    800006f2:	16a2                	sll	a3,a3,0x28
    800006f4:	8f55                	or	a4,a4,a3
    800006f6:	0067c683          	lbu	a3,6(a5)
    800006fa:	16c2                	sll	a3,a3,0x30
    800006fc:	8f55                	or	a4,a4,a3
    800006fe:	0077c783          	lbu	a5,7(a5)
    80000702:	17e2                	sll	a5,a5,0x38
    80000704:	8fd9                	or	a5,a5,a4
    80000706:	fef43423          	sd	a5,-24(s0)
    8000070a:	fe843783          	ld	a5,-24(s0)
    8000070e:	00a7d713          	srl	a4,a5,0xa
    80000712:	c00007b7          	lui	a5,0xc0000
    80000716:	83d1                	srl	a5,a5,0x14
    80000718:	8ff9                	and	a5,a5,a4
    8000071a:	853e                	mv	a0,a5
    8000071c:	7422                	ld	s0,40(sp)
    8000071e:	6145                	add	sp,sp,48
    80000720:	8082                	ret

0000000080000722 <set_entry>:
    80000722:	715d                	add	sp,sp,-80
    80000724:	e4a2                	sd	s0,72(sp)
    80000726:	0880                	add	s0,sp,80
    80000728:	fca43423          	sd	a0,-56(s0)
    8000072c:	fcb43023          	sd	a1,-64(s0)
    80000730:	87b2                	mv	a5,a2
    80000732:	faf40fa3          	sb	a5,-65(s0)
    80000736:	fc043783          	ld	a5,-64(s0)
    8000073a:	83b1                	srl	a5,a5,0xc
    8000073c:	1ff7f793          	and	a5,a5,511
    80000740:	fcf43c23          	sd	a5,-40(s0)
    80000744:	fc043783          	ld	a5,-64(s0)
    80000748:	83d5                	srl	a5,a5,0x15
    8000074a:	1ff7f793          	and	a5,a5,511
    8000074e:	fef43023          	sd	a5,-32(s0)
    80000752:	fc043783          	ld	a5,-64(s0)
    80000756:	01e7d713          	srl	a4,a5,0x1e
    8000075a:	040007b7          	lui	a5,0x4000
    8000075e:	17fd                	add	a5,a5,-1 # 3ffffff <_heap_size-0xbf7cfd1>
    80000760:	8ff9                	and	a5,a5,a4
    80000762:	fef43423          	sd	a5,-24(s0)
    80000766:	fe843783          	ld	a5,-24(s0)
    8000076a:	01c79713          	sll	a4,a5,0x1c
    8000076e:	fe043783          	ld	a5,-32(s0)
    80000772:	07ce                	sll	a5,a5,0x13
    80000774:	8f5d                	or	a4,a4,a5
    80000776:	fd843783          	ld	a5,-40(s0)
    8000077a:	07aa                	sll	a5,a5,0xa
    8000077c:	8f5d                	or	a4,a4,a5
    8000077e:	fbf44783          	lbu	a5,-65(s0)
    80000782:	8fd9                	or	a5,a5,a4
    80000784:	0017e713          	or	a4,a5,1
    80000788:	fc843783          	ld	a5,-56(s0)
    8000078c:	0ff77693          	zext.b	a3,a4
    80000790:	0007c603          	lbu	a2,0(a5)
    80000794:	8a01                	and	a2,a2,0
    80000796:	8ed1                	or	a3,a3,a2
    80000798:	00d78023          	sb	a3,0(a5)
    8000079c:	00875693          	srl	a3,a4,0x8
    800007a0:	0ff6f693          	zext.b	a3,a3
    800007a4:	0017c603          	lbu	a2,1(a5)
    800007a8:	8a01                	and	a2,a2,0
    800007aa:	8ed1                	or	a3,a3,a2
    800007ac:	00d780a3          	sb	a3,1(a5)
    800007b0:	01075693          	srl	a3,a4,0x10
    800007b4:	0ff6f693          	zext.b	a3,a3
    800007b8:	0027c603          	lbu	a2,2(a5)
    800007bc:	8a01                	and	a2,a2,0
    800007be:	8ed1                	or	a3,a3,a2
    800007c0:	00d78123          	sb	a3,2(a5)
    800007c4:	01875693          	srl	a3,a4,0x18
    800007c8:	0ff6f693          	zext.b	a3,a3
    800007cc:	0037c603          	lbu	a2,3(a5)
    800007d0:	8a01                	and	a2,a2,0
    800007d2:	8ed1                	or	a3,a3,a2
    800007d4:	00d781a3          	sb	a3,3(a5)
    800007d8:	02075693          	srl	a3,a4,0x20
    800007dc:	0ff6f693          	zext.b	a3,a3
    800007e0:	0047c603          	lbu	a2,4(a5)
    800007e4:	8a01                	and	a2,a2,0
    800007e6:	8ed1                	or	a3,a3,a2
    800007e8:	00d78223          	sb	a3,4(a5)
    800007ec:	02875693          	srl	a3,a4,0x28
    800007f0:	0ff6f693          	zext.b	a3,a3
    800007f4:	0057c603          	lbu	a2,5(a5)
    800007f8:	8a01                	and	a2,a2,0
    800007fa:	8ed1                	or	a3,a3,a2
    800007fc:	00d782a3          	sb	a3,5(a5)
    80000800:	03075693          	srl	a3,a4,0x30
    80000804:	0ff6f693          	zext.b	a3,a3
    80000808:	0067c603          	lbu	a2,6(a5)
    8000080c:	8a01                	and	a2,a2,0
    8000080e:	8ed1                	or	a3,a3,a2
    80000810:	00d78323          	sb	a3,6(a5)
    80000814:	9361                	srl	a4,a4,0x38
    80000816:	0077c683          	lbu	a3,7(a5)
    8000081a:	8a81                	and	a3,a3,0
    8000081c:	8f55                	or	a4,a4,a3
    8000081e:	00e783a3          	sb	a4,7(a5)
    80000822:	0001                	nop
    80000824:	6426                	ld	s0,72(sp)
    80000826:	6161                	add	sp,sp,80
    80000828:	8082                	ret

000000008000082a <map>:
    8000082a:	711d                	add	sp,sp,-96
    8000082c:	ec86                	sd	ra,88(sp)
    8000082e:	e8a2                	sd	s0,80(sp)
    80000830:	1080                	add	s0,sp,96
    80000832:	faa43c23          	sd	a0,-72(s0)
    80000836:	fab43823          	sd	a1,-80(s0)
    8000083a:	fac43423          	sd	a2,-88(s0)
    8000083e:	87b6                	mv	a5,a3
    80000840:	faf403a3          	sb	a5,-89(s0)
    80000844:	87ba                	mv	a5,a4
    80000846:	faf40323          	sb	a5,-90(s0)
    8000084a:	4789                	li	a5,2
    8000084c:	fef403a3          	sb	a5,-25(s0)
    80000850:	fb043783          	ld	a5,-80(s0)
    80000854:	83b1                	srl	a5,a5,0xc
    80000856:	1ff7f793          	and	a5,a5,511
    8000085a:	fcf43023          	sd	a5,-64(s0)
    8000085e:	fb043783          	ld	a5,-80(s0)
    80000862:	83d5                	srl	a5,a5,0x15
    80000864:	1ff7f793          	and	a5,a5,511
    80000868:	fcf43423          	sd	a5,-56(s0)
    8000086c:	fb043783          	ld	a5,-80(s0)
    80000870:	83f9                	srl	a5,a5,0x1e
    80000872:	1ff7f793          	and	a5,a5,511
    80000876:	fcf43823          	sd	a5,-48(s0)
    8000087a:	fe744783          	lbu	a5,-25(s0)
    8000087e:	2781                	sext.w	a5,a5
    80000880:	078e                	sll	a5,a5,0x3
    80000882:	17c1                	add	a5,a5,-16
    80000884:	97a2                	add	a5,a5,s0
    80000886:	fd07b783          	ld	a5,-48(a5)
    8000088a:	078e                	sll	a5,a5,0x3
    8000088c:	fb843703          	ld	a4,-72(s0)
    80000890:	97ba                	add	a5,a5,a4
    80000892:	fef43423          	sd	a5,-24(s0)
    80000896:	a8e1                	j	8000096e <map+0x144>
    80000898:	fe843503          	ld	a0,-24(s0)
    8000089c:	dc9ff0ef          	jal	80000664 <entry_is_allocated>
    800008a0:	87aa                	mv	a5,a0
    800008a2:	ebb1                	bnez	a5,800008f6 <map+0xcc>
    800008a4:	6505                	lui	a0,0x1
    800008a6:	d33ff0ef          	jal	800005d8 <kzalloc>
    800008aa:	fca43c23          	sd	a0,-40(s0)
    800008ae:	00001517          	auipc	a0,0x1
    800008b2:	75250513          	add	a0,a0,1874 # 80002000 <_rodata_start>
    800008b6:	4d2000ef          	jal	80000d88 <puts>
    800008ba:	fd843783          	ld	a5,-40(s0)
    800008be:	853e                	mv	a0,a5
    800008c0:	560000ef          	jal	80000e20 <print_num>
    800008c4:	00001517          	auipc	a0,0x1
    800008c8:	74c50513          	add	a0,a0,1868 # 80002010 <_rodata_start+0x10>
    800008cc:	4bc000ef          	jal	80000d88 <puts>
    800008d0:	fa744783          	lbu	a5,-89(s0)
    800008d4:	853e                	mv	a0,a5
    800008d6:	54a000ef          	jal	80000e20 <print_num>
    800008da:	00001517          	auipc	a0,0x1
    800008de:	74650513          	add	a0,a0,1862 # 80002020 <_rodata_start+0x20>
    800008e2:	4a6000ef          	jal	80000d88 <puts>
    800008e6:	fd843783          	ld	a5,-40(s0)
    800008ea:	4601                	li	a2,0
    800008ec:	85be                	mv	a1,a5
    800008ee:	fe843503          	ld	a0,-24(s0)
    800008f2:	e31ff0ef          	jal	80000722 <set_entry>
    800008f6:	fe843783          	ld	a5,-24(s0)
    800008fa:	0007c703          	lbu	a4,0(a5)
    800008fe:	0017c683          	lbu	a3,1(a5)
    80000902:	06a2                	sll	a3,a3,0x8
    80000904:	8f55                	or	a4,a4,a3
    80000906:	0027c683          	lbu	a3,2(a5)
    8000090a:	06c2                	sll	a3,a3,0x10
    8000090c:	8f55                	or	a4,a4,a3
    8000090e:	0037c683          	lbu	a3,3(a5)
    80000912:	06e2                	sll	a3,a3,0x18
    80000914:	8f55                	or	a4,a4,a3
    80000916:	0047c683          	lbu	a3,4(a5)
    8000091a:	1682                	sll	a3,a3,0x20
    8000091c:	8f55                	or	a4,a4,a3
    8000091e:	0057c683          	lbu	a3,5(a5)
    80000922:	16a2                	sll	a3,a3,0x28
    80000924:	8f55                	or	a4,a4,a3
    80000926:	0067c683          	lbu	a3,6(a5)
    8000092a:	16c2                	sll	a3,a3,0x30
    8000092c:	8f55                	or	a4,a4,a3
    8000092e:	0077c783          	lbu	a5,7(a5)
    80000932:	17e2                	sll	a5,a5,0x38
    80000934:	8fd9                	or	a5,a5,a4
    80000936:	83a9                	srl	a5,a5,0xa
    80000938:	07b2                	sll	a5,a5,0xc
    8000093a:	fef43423          	sd	a5,-24(s0)
    8000093e:	fe744783          	lbu	a5,-25(s0)
    80000942:	37fd                	addw	a5,a5,-1
    80000944:	fef403a3          	sb	a5,-25(s0)
    80000948:	fe744783          	lbu	a5,-25(s0)
    8000094c:	2781                	sext.w	a5,a5
    8000094e:	078e                	sll	a5,a5,0x3
    80000950:	17c1                	add	a5,a5,-16
    80000952:	97a2                	add	a5,a5,s0
    80000954:	fd07b783          	ld	a5,-48(a5)
    80000958:	078e                	sll	a5,a5,0x3
    8000095a:	fe843703          	ld	a4,-24(s0)
    8000095e:	97ba                	add	a5,a5,a4
    80000960:	fef43423          	sd	a5,-24(s0)
    80000964:	fa744783          	lbu	a5,-89(s0)
    80000968:	2785                	addw	a5,a5,1
    8000096a:	faf403a3          	sb	a5,-89(s0)
    8000096e:	fa744783          	lbu	a5,-89(s0)
    80000972:	0ff7f713          	zext.b	a4,a5
    80000976:	4785                	li	a5,1
    80000978:	f2e7f0e3          	bgeu	a5,a4,80000898 <map+0x6e>
    8000097c:	fa644783          	lbu	a5,-90(s0)
    80000980:	863e                	mv	a2,a5
    80000982:	fa843583          	ld	a1,-88(s0)
    80000986:	fe843503          	ld	a0,-24(s0)
    8000098a:	d99ff0ef          	jal	80000722 <set_entry>
    8000098e:	0001                	nop
    80000990:	60e6                	ld	ra,88(sp)
    80000992:	6446                	ld	s0,80(sp)
    80000994:	6125                	add	sp,sp,96
    80000996:	8082                	ret

0000000080000998 <map_kernel_range>:
    80000998:	7179                	add	sp,sp,-48
    8000099a:	f406                	sd	ra,40(sp)
    8000099c:	f022                	sd	s0,32(sp)
    8000099e:	1800                	add	s0,sp,48
    800009a0:	fea43423          	sd	a0,-24(s0)
    800009a4:	feb43023          	sd	a1,-32(s0)
    800009a8:	fcc43c23          	sd	a2,-40(s0)
    800009ac:	87b6                	mv	a5,a3
    800009ae:	fcf40ba3          	sb	a5,-41(s0)
    800009b2:	fe043503          	ld	a0,-32(s0)
    800009b6:	8cbff0ef          	jal	80000280 <floor_page>
    800009ba:	fea43023          	sd	a0,-32(s0)
    800009be:	fd843503          	ld	a0,-40(s0)
    800009c2:	8d9ff0ef          	jal	8000029a <ceil_page>
    800009c6:	fca43c23          	sd	a0,-40(s0)
    800009ca:	a01d                	j	800009f0 <map_kernel_range+0x58>
    800009cc:	fd744783          	lbu	a5,-41(s0)
    800009d0:	873e                	mv	a4,a5
    800009d2:	4681                	li	a3,0
    800009d4:	fe043603          	ld	a2,-32(s0)
    800009d8:	fe043583          	ld	a1,-32(s0)
    800009dc:	fe843503          	ld	a0,-24(s0)
    800009e0:	e4bff0ef          	jal	8000082a <map>
    800009e4:	fe043703          	ld	a4,-32(s0)
    800009e8:	6785                	lui	a5,0x1
    800009ea:	97ba                	add	a5,a5,a4
    800009ec:	fef43023          	sd	a5,-32(s0)
    800009f0:	fe043703          	ld	a4,-32(s0)
    800009f4:	fd843783          	ld	a5,-40(s0)
    800009f8:	fcf76ae3          	bltu	a4,a5,800009cc <map_kernel_range+0x34>
    800009fc:	0001                	nop
    800009fe:	0001                	nop
    80000a00:	70a2                	ld	ra,40(sp)
    80000a02:	7402                	ld	s0,32(sp)
    80000a04:	6145                	add	sp,sp,48
    80000a06:	8082                	ret

0000000080000a08 <print_table>:
    80000a08:	7179                	add	sp,sp,-48
    80000a0a:	f406                	sd	ra,40(sp)
    80000a0c:	f022                	sd	s0,32(sp)
    80000a0e:	1800                	add	s0,sp,48
    80000a10:	fca43c23          	sd	a0,-40(s0)
    80000a14:	87ae                	mv	a5,a1
    80000a16:	fcf40ba3          	sb	a5,-41(s0)
    80000a1a:	00001517          	auipc	a0,0x1
    80000a1e:	60e50513          	add	a0,a0,1550 # 80002028 <_rodata_start+0x28>
    80000a22:	366000ef          	jal	80000d88 <puts>
    80000a26:	fd843783          	ld	a5,-40(s0)
    80000a2a:	853e                	mv	a0,a5
    80000a2c:	3f4000ef          	jal	80000e20 <print_num>
    80000a30:	00001517          	auipc	a0,0x1
    80000a34:	60050513          	add	a0,a0,1536 # 80002030 <_rodata_start+0x30>
    80000a38:	350000ef          	jal	80000d88 <puts>
    80000a3c:	fe042623          	sw	zero,-20(s0)
    80000a40:	aa65                	j	80000bf8 <print_table+0x1f0>
    80000a42:	fd843703          	ld	a4,-40(s0)
    80000a46:	fec46783          	lwu	a5,-20(s0)
    80000a4a:	078e                	sll	a5,a5,0x3
    80000a4c:	97ba                	add	a5,a5,a4
    80000a4e:	0007c703          	lbu	a4,0(a5) # 1000 <_heap_size-0xff7bfd0>
    80000a52:	0017c683          	lbu	a3,1(a5)
    80000a56:	06a2                	sll	a3,a3,0x8
    80000a58:	8f55                	or	a4,a4,a3
    80000a5a:	0027c683          	lbu	a3,2(a5)
    80000a5e:	06c2                	sll	a3,a3,0x10
    80000a60:	8f55                	or	a4,a4,a3
    80000a62:	0037c683          	lbu	a3,3(a5)
    80000a66:	06e2                	sll	a3,a3,0x18
    80000a68:	8f55                	or	a4,a4,a3
    80000a6a:	0047c683          	lbu	a3,4(a5)
    80000a6e:	1682                	sll	a3,a3,0x20
    80000a70:	8f55                	or	a4,a4,a3
    80000a72:	0057c683          	lbu	a3,5(a5)
    80000a76:	16a2                	sll	a3,a3,0x28
    80000a78:	8f55                	or	a4,a4,a3
    80000a7a:	0067c683          	lbu	a3,6(a5)
    80000a7e:	16c2                	sll	a3,a3,0x30
    80000a80:	8f55                	or	a4,a4,a3
    80000a82:	0077c783          	lbu	a5,7(a5)
    80000a86:	17e2                	sll	a5,a5,0x38
    80000a88:	8fd9                	or	a5,a5,a4
    80000a8a:	16078263          	beqz	a5,80000bee <print_table+0x1e6>
    80000a8e:	00001517          	auipc	a0,0x1
    80000a92:	5ba50513          	add	a0,a0,1466 # 80002048 <_rodata_start+0x48>
    80000a96:	2f2000ef          	jal	80000d88 <puts>
    80000a9a:	fec46783          	lwu	a5,-20(s0)
    80000a9e:	853e                	mv	a0,a5
    80000aa0:	380000ef          	jal	80000e20 <print_num>
    80000aa4:	00001517          	auipc	a0,0x1
    80000aa8:	5ac50513          	add	a0,a0,1452 # 80002050 <_rodata_start+0x50>
    80000aac:	2dc000ef          	jal	80000d88 <puts>
    80000ab0:	fd843703          	ld	a4,-40(s0)
    80000ab4:	fec46783          	lwu	a5,-20(s0)
    80000ab8:	078e                	sll	a5,a5,0x3
    80000aba:	97ba                	add	a5,a5,a4
    80000abc:	0007c703          	lbu	a4,0(a5)
    80000ac0:	0017c683          	lbu	a3,1(a5)
    80000ac4:	06a2                	sll	a3,a3,0x8
    80000ac6:	8f55                	or	a4,a4,a3
    80000ac8:	0027c683          	lbu	a3,2(a5)
    80000acc:	06c2                	sll	a3,a3,0x10
    80000ace:	8f55                	or	a4,a4,a3
    80000ad0:	0037c683          	lbu	a3,3(a5)
    80000ad4:	06e2                	sll	a3,a3,0x18
    80000ad6:	8f55                	or	a4,a4,a3
    80000ad8:	0047c683          	lbu	a3,4(a5)
    80000adc:	1682                	sll	a3,a3,0x20
    80000ade:	8f55                	or	a4,a4,a3
    80000ae0:	0057c683          	lbu	a3,5(a5)
    80000ae4:	16a2                	sll	a3,a3,0x28
    80000ae6:	8f55                	or	a4,a4,a3
    80000ae8:	0067c683          	lbu	a3,6(a5)
    80000aec:	16c2                	sll	a3,a3,0x30
    80000aee:	8f55                	or	a4,a4,a3
    80000af0:	0077c783          	lbu	a5,7(a5)
    80000af4:	17e2                	sll	a5,a5,0x38
    80000af6:	8fd9                	or	a5,a5,a4
    80000af8:	853e                	mv	a0,a5
    80000afa:	326000ef          	jal	80000e20 <print_num>
    80000afe:	00001517          	auipc	a0,0x1
    80000b02:	55a50513          	add	a0,a0,1370 # 80002058 <_rodata_start+0x58>
    80000b06:	282000ef          	jal	80000d88 <puts>
    80000b0a:	fec46783          	lwu	a5,-20(s0)
    80000b0e:	078e                	sll	a5,a5,0x3
    80000b10:	fd843703          	ld	a4,-40(s0)
    80000b14:	97ba                	add	a5,a5,a4
    80000b16:	853e                	mv	a0,a5
    80000b18:	ba5ff0ef          	jal	800006bc <get_next_entry>
    80000b1c:	87aa                	mv	a5,a0
    80000b1e:	853e                	mv	a0,a5
    80000b20:	300000ef          	jal	80000e20 <print_num>
    80000b24:	00001517          	auipc	a0,0x1
    80000b28:	4fc50513          	add	a0,a0,1276 # 80002020 <_rodata_start+0x20>
    80000b2c:	25c000ef          	jal	80000d88 <puts>
    80000b30:	00001517          	auipc	a0,0x1
    80000b34:	54050513          	add	a0,a0,1344 # 80002070 <_rodata_start+0x70>
    80000b38:	250000ef          	jal	80000d88 <puts>
    80000b3c:	fd843703          	ld	a4,-40(s0)
    80000b40:	fec46783          	lwu	a5,-20(s0)
    80000b44:	078e                	sll	a5,a5,0x3
    80000b46:	97ba                	add	a5,a5,a4
    80000b48:	0007c703          	lbu	a4,0(a5)
    80000b4c:	0017c683          	lbu	a3,1(a5)
    80000b50:	06a2                	sll	a3,a3,0x8
    80000b52:	8f55                	or	a4,a4,a3
    80000b54:	0027c683          	lbu	a3,2(a5)
    80000b58:	06c2                	sll	a3,a3,0x10
    80000b5a:	8f55                	or	a4,a4,a3
    80000b5c:	0037c683          	lbu	a3,3(a5)
    80000b60:	06e2                	sll	a3,a3,0x18
    80000b62:	8f55                	or	a4,a4,a3
    80000b64:	0047c683          	lbu	a3,4(a5)
    80000b68:	1682                	sll	a3,a3,0x20
    80000b6a:	8f55                	or	a4,a4,a3
    80000b6c:	0057c683          	lbu	a3,5(a5)
    80000b70:	16a2                	sll	a3,a3,0x28
    80000b72:	8f55                	or	a4,a4,a3
    80000b74:	0067c683          	lbu	a3,6(a5)
    80000b78:	16c2                	sll	a3,a3,0x30
    80000b7a:	8f55                	or	a4,a4,a3
    80000b7c:	0077c783          	lbu	a5,7(a5)
    80000b80:	17e2                	sll	a5,a5,0x38
    80000b82:	8fd9                	or	a5,a5,a4
    80000b84:	0ff7f793          	zext.b	a5,a5
    80000b88:	853e                	mv	a0,a5
    80000b8a:	296000ef          	jal	80000e20 <print_num>
    80000b8e:	00001517          	auipc	a0,0x1
    80000b92:	49250513          	add	a0,a0,1170 # 80002020 <_rodata_start+0x20>
    80000b96:	1f2000ef          	jal	80000d88 <puts>
    80000b9a:	fd744783          	lbu	a5,-41(s0)
    80000b9e:	0ff7f793          	zext.b	a5,a5
    80000ba2:	c3a1                	beqz	a5,80000be2 <print_table+0x1da>
    80000ba4:	00001517          	auipc	a0,0x1
    80000ba8:	4dc50513          	add	a0,a0,1244 # 80002080 <_rodata_start+0x80>
    80000bac:	1dc000ef          	jal	80000d88 <puts>
    80000bb0:	fec46783          	lwu	a5,-20(s0)
    80000bb4:	078e                	sll	a5,a5,0x3
    80000bb6:	fd843703          	ld	a4,-40(s0)
    80000bba:	97ba                	add	a5,a5,a4
    80000bbc:	853e                	mv	a0,a5
    80000bbe:	affff0ef          	jal	800006bc <get_next_entry>
    80000bc2:	872a                	mv	a4,a0
    80000bc4:	fd744783          	lbu	a5,-41(s0)
    80000bc8:	37fd                	addw	a5,a5,-1
    80000bca:	0ff7f793          	zext.b	a5,a5
    80000bce:	85be                	mv	a1,a5
    80000bd0:	853a                	mv	a0,a4
    80000bd2:	e37ff0ef          	jal	80000a08 <print_table>
    80000bd6:	00001517          	auipc	a0,0x1
    80000bda:	4b250513          	add	a0,a0,1202 # 80002088 <_rodata_start+0x88>
    80000bde:	1aa000ef          	jal	80000d88 <puts>
    80000be2:	00001517          	auipc	a0,0x1
    80000be6:	43e50513          	add	a0,a0,1086 # 80002020 <_rodata_start+0x20>
    80000bea:	19e000ef          	jal	80000d88 <puts>
    80000bee:	fec42783          	lw	a5,-20(s0)
    80000bf2:	2785                	addw	a5,a5,1
    80000bf4:	fef42623          	sw	a5,-20(s0)
    80000bf8:	fec42783          	lw	a5,-20(s0)
    80000bfc:	0007871b          	sext.w	a4,a5
    80000c00:	1ff00793          	li	a5,511
    80000c04:	e2e7ffe3          	bgeu	a5,a4,80000a42 <print_table+0x3a>
    80000c08:	0001                	nop
    80000c0a:	0001                	nop
    80000c0c:	70a2                	ld	ra,40(sp)
    80000c0e:	7402                	ld	s0,32(sp)
    80000c10:	6145                	add	sp,sp,48
    80000c12:	8082                	ret

0000000080000c14 <map_kernel>:
    80000c14:	1101                	add	sp,sp,-32
    80000c16:	ec06                	sd	ra,24(sp)
    80000c18:	e822                	sd	s0,16(sp)
    80000c1a:	1000                	add	s0,sp,32
    80000c1c:	6505                	lui	a0,0x1
    80000c1e:	9bbff0ef          	jal	800005d8 <kzalloc>
    80000c22:	872a                	mv	a4,a0
    80000c24:	00002797          	auipc	a5,0x2
    80000c28:	3ec78793          	add	a5,a5,1004 # 80003010 <root>
    80000c2c:	e398                	sd	a4,0(a5)
    80000c2e:	00002797          	auipc	a5,0x2
    80000c32:	3e278793          	add	a5,a5,994 # 80003010 <root>
    80000c36:	6398                	ld	a4,0(a5)
    80000c38:	fffff797          	auipc	a5,0xfffff
    80000c3c:	5d478793          	add	a5,a5,1492 # 8000020c <TEXT_START>
    80000c40:	638c                	ld	a1,0(a5)
    80000c42:	fffff797          	auipc	a5,0xfffff
    80000c46:	5d278793          	add	a5,a5,1490 # 80000214 <TEXT_END>
    80000c4a:	639c                	ld	a5,0(a5)
    80000c4c:	46b9                	li	a3,14
    80000c4e:	863e                	mv	a2,a5
    80000c50:	853a                	mv	a0,a4
    80000c52:	d47ff0ef          	jal	80000998 <map_kernel_range>
    80000c56:	00002797          	auipc	a5,0x2
    80000c5a:	3ba78793          	add	a5,a5,954 # 80003010 <root>
    80000c5e:	6398                	ld	a4,0(a5)
    80000c60:	fffff797          	auipc	a5,0xfffff
    80000c64:	58c78793          	add	a5,a5,1420 # 800001ec <RODATA_START>
    80000c68:	638c                	ld	a1,0(a5)
    80000c6a:	fffff797          	auipc	a5,0xfffff
    80000c6e:	58a78793          	add	a5,a5,1418 # 800001f4 <RODATA_END>
    80000c72:	639c                	ld	a5,0(a5)
    80000c74:	4699                	li	a3,6
    80000c76:	863e                	mv	a2,a5
    80000c78:	853a                	mv	a0,a4
    80000c7a:	d1fff0ef          	jal	80000998 <map_kernel_range>
    80000c7e:	00002797          	auipc	a5,0x2
    80000c82:	39278793          	add	a5,a5,914 # 80003010 <root>
    80000c86:	6398                	ld	a4,0(a5)
    80000c88:	fffff797          	auipc	a5,0xfffff
    80000c8c:	57478793          	add	a5,a5,1396 # 800001fc <DATA_START>
    80000c90:	638c                	ld	a1,0(a5)
    80000c92:	fffff797          	auipc	a5,0xfffff
    80000c96:	57278793          	add	a5,a5,1394 # 80000204 <DATA_END>
    80000c9a:	639c                	ld	a5,0(a5)
    80000c9c:	4699                	li	a3,6
    80000c9e:	863e                	mv	a2,a5
    80000ca0:	853a                	mv	a0,a4
    80000ca2:	cf7ff0ef          	jal	80000998 <map_kernel_range>
    80000ca6:	00002797          	auipc	a5,0x2
    80000caa:	36a78793          	add	a5,a5,874 # 80003010 <root>
    80000cae:	6398                	ld	a4,0(a5)
    80000cb0:	fffff797          	auipc	a5,0xfffff
    80000cb4:	52c78793          	add	a5,a5,1324 # 800001dc <BSS_START>
    80000cb8:	638c                	ld	a1,0(a5)
    80000cba:	fffff797          	auipc	a5,0xfffff
    80000cbe:	52a78793          	add	a5,a5,1322 # 800001e4 <BSS_END>
    80000cc2:	639c                	ld	a5,0(a5)
    80000cc4:	4699                	li	a3,6
    80000cc6:	863e                	mv	a2,a5
    80000cc8:	853a                	mv	a0,a4
    80000cca:	ccfff0ef          	jal	80000998 <map_kernel_range>
    80000cce:	00002797          	auipc	a5,0x2
    80000cd2:	34278793          	add	a5,a5,834 # 80003010 <root>
    80000cd6:	6398                	ld	a4,0(a5)
    80000cd8:	fffff797          	auipc	a5,0xfffff
    80000cdc:	50c78793          	add	a5,a5,1292 # 800001e4 <BSS_END>
    80000ce0:	638c                	ld	a1,0(a5)
    80000ce2:	fffff797          	auipc	a5,0xfffff
    80000ce6:	53a78793          	add	a5,a5,1338 # 8000021c <STACK>
    80000cea:	639c                	ld	a5,0(a5)
    80000cec:	4699                	li	a3,6
    80000cee:	863e                	mv	a2,a5
    80000cf0:	853a                	mv	a0,a4
    80000cf2:	ca7ff0ef          	jal	80000998 <map_kernel_range>
    80000cf6:	00002797          	auipc	a5,0x2
    80000cfa:	31a78793          	add	a5,a5,794 # 80003010 <root>
    80000cfe:	6388                	ld	a0,0(a5)
    80000d00:	fffff797          	auipc	a5,0xfffff
    80000d04:	4d478793          	add	a5,a5,1236 # 800001d4 <HEAP_START>
    80000d08:	638c                	ld	a1,0(a5)
    80000d0a:	00002797          	auipc	a5,0x2
    80000d0e:	30e78793          	add	a5,a5,782 # 80003018 <pages_count>
    80000d12:	639c                	ld	a5,0(a5)
    80000d14:	00c79713          	sll	a4,a5,0xc
    80000d18:	fffff797          	auipc	a5,0xfffff
    80000d1c:	4bc78793          	add	a5,a5,1212 # 800001d4 <HEAP_START>
    80000d20:	639c                	ld	a5,0(a5)
    80000d22:	97ba                	add	a5,a5,a4
    80000d24:	4699                	li	a3,6
    80000d26:	863e                	mv	a2,a5
    80000d28:	c71ff0ef          	jal	80000998 <map_kernel_range>
    80000d2c:	00002797          	auipc	a5,0x2
    80000d30:	2e478793          	add	a5,a5,740 # 80003010 <root>
    80000d34:	639c                	ld	a5,0(a5)
    80000d36:	4719                	li	a4,6
    80000d38:	4681                	li	a3,0
    80000d3a:	10000637          	lui	a2,0x10000
    80000d3e:	100005b7          	lui	a1,0x10000
    80000d42:	853e                	mv	a0,a5
    80000d44:	ae7ff0ef          	jal	8000082a <map>
    80000d48:	00002797          	auipc	a5,0x2
    80000d4c:	2c878793          	add	a5,a5,712 # 80003010 <root>
    80000d50:	639c                	ld	a5,0(a5)
    80000d52:	83b1                	srl	a5,a5,0xc
    80000d54:	fef43423          	sd	a5,-24(s0)
    80000d58:	fe843703          	ld	a4,-24(s0)
    80000d5c:	57fd                	li	a5,-1
    80000d5e:	17fe                	sll	a5,a5,0x3f
    80000d60:	8fd9                	or	a5,a5,a4
    80000d62:	fef43023          	sd	a5,-32(s0)
    80000d66:	fe043783          	ld	a5,-32(s0)
    80000d6a:	18079073          	csrw	satp,a5
    80000d6e:	00001517          	auipc	a0,0x1
    80000d72:	32250513          	add	a0,a0,802 # 80002090 <_rodata_start+0x90>
    80000d76:	012000ef          	jal	80000d88 <puts>
    80000d7a:	beaff0ef          	jal	80000164 <supervisor_mode>
    80000d7e:	0001                	nop
    80000d80:	60e2                	ld	ra,24(sp)
    80000d82:	6442                	ld	s0,16(sp)
    80000d84:	6105                	add	sp,sp,32
    80000d86:	8082                	ret

0000000080000d88 <puts>:
    80000d88:	1101                	add	sp,sp,-32
    80000d8a:	ec22                	sd	s0,24(sp)
    80000d8c:	1000                	add	s0,sp,32
    80000d8e:	fea43423          	sd	a0,-24(s0)
    80000d92:	a005                	j	80000db2 <puts+0x2a>
    80000d94:	fe843783          	ld	a5,-24(s0)
    80000d98:	00178713          	add	a4,a5,1
    80000d9c:	fee43423          	sd	a4,-24(s0)
    80000da0:	00002717          	auipc	a4,0x2
    80000da4:	26070713          	add	a4,a4,608 # 80003000 <UART>
    80000da8:	6318                	ld	a4,0(a4)
    80000daa:	0007c783          	lbu	a5,0(a5)
    80000dae:	00f70023          	sb	a5,0(a4)
    80000db2:	fe843783          	ld	a5,-24(s0)
    80000db6:	0007c783          	lbu	a5,0(a5)
    80000dba:	ffe9                	bnez	a5,80000d94 <puts+0xc>
    80000dbc:	0001                	nop
    80000dbe:	0001                	nop
    80000dc0:	6462                	ld	s0,24(sp)
    80000dc2:	6105                	add	sp,sp,32
    80000dc4:	8082                	ret

0000000080000dc6 <putc>:
    80000dc6:	1101                	add	sp,sp,-32
    80000dc8:	ec22                	sd	s0,24(sp)
    80000dca:	1000                	add	s0,sp,32
    80000dcc:	87aa                	mv	a5,a0
    80000dce:	fef407a3          	sb	a5,-17(s0)
    80000dd2:	00002797          	auipc	a5,0x2
    80000dd6:	22e78793          	add	a5,a5,558 # 80003000 <UART>
    80000dda:	639c                	ld	a5,0(a5)
    80000ddc:	fef44703          	lbu	a4,-17(s0)
    80000de0:	00e78023          	sb	a4,0(a5)
    80000de4:	0001                	nop
    80000de6:	6462                	ld	s0,24(sp)
    80000de8:	6105                	add	sp,sp,32
    80000dea:	8082                	ret

0000000080000dec <getc>:
    80000dec:	1141                	add	sp,sp,-16
    80000dee:	e422                	sd	s0,8(sp)
    80000df0:	0800                	add	s0,sp,16
    80000df2:	0001                	nop
    80000df4:	00002797          	auipc	a5,0x2
    80000df8:	21478793          	add	a5,a5,532 # 80003008 <UART_READY>
    80000dfc:	639c                	ld	a5,0(a5)
    80000dfe:	0007c783          	lbu	a5,0(a5)
    80000e02:	2781                	sext.w	a5,a5
    80000e04:	8b85                	and	a5,a5,1
    80000e06:	2781                	sext.w	a5,a5
    80000e08:	d7f5                	beqz	a5,80000df4 <getc+0x8>
    80000e0a:	00002797          	auipc	a5,0x2
    80000e0e:	1f678793          	add	a5,a5,502 # 80003000 <UART>
    80000e12:	639c                	ld	a5,0(a5)
    80000e14:	0007c783          	lbu	a5,0(a5)
    80000e18:	853e                	mv	a0,a5
    80000e1a:	6422                	ld	s0,8(sp)
    80000e1c:	0141                	add	sp,sp,16
    80000e1e:	8082                	ret

0000000080000e20 <print_num>:
    80000e20:	711d                	add	sp,sp,-96
    80000e22:	ec86                	sd	ra,88(sp)
    80000e24:	e8a2                	sd	s0,80(sp)
    80000e26:	1080                	add	s0,sp,96
    80000e28:	faa43423          	sd	a0,-88(s0)
    80000e2c:	fe0404a3          	sb	zero,-23(s0)
    80000e30:	fe0407a3          	sb	zero,-17(s0)
    80000e34:	fa843783          	ld	a5,-88(s0)
    80000e38:	ebb9                	bnez	a5,80000e8e <print_num+0x6e>
    80000e3a:	00001517          	auipc	a0,0x1
    80000e3e:	28e50513          	add	a0,a0,654 # 800020c8 <_rodata_start+0xc8>
    80000e42:	f47ff0ef          	jal	80000d88 <puts>
    80000e46:	a09d                	j	80000eac <print_num+0x8c>
    80000e48:	fa843703          	ld	a4,-88(s0)
    80000e4c:	47a9                	li	a5,10
    80000e4e:	02f777b3          	remu	a5,a4,a5
    80000e52:	0ff7f713          	zext.b	a4,a5
    80000e56:	fef44783          	lbu	a5,-17(s0)
    80000e5a:	2781                	sext.w	a5,a5
    80000e5c:	03000693          	li	a3,48
    80000e60:	40f687bb          	subw	a5,a3,a5
    80000e64:	2781                	sext.w	a5,a5
    80000e66:	0307071b          	addw	a4,a4,48
    80000e6a:	0ff77713          	zext.b	a4,a4
    80000e6e:	17c1                	add	a5,a5,-16
    80000e70:	97a2                	add	a5,a5,s0
    80000e72:	fce78423          	sb	a4,-56(a5)
    80000e76:	fa843703          	ld	a4,-88(s0)
    80000e7a:	47a9                	li	a5,10
    80000e7c:	02f757b3          	divu	a5,a4,a5
    80000e80:	faf43423          	sd	a5,-88(s0)
    80000e84:	fef44783          	lbu	a5,-17(s0)
    80000e88:	2785                	addw	a5,a5,1
    80000e8a:	fef407a3          	sb	a5,-17(s0)
    80000e8e:	fa843783          	ld	a5,-88(s0)
    80000e92:	fbdd                	bnez	a5,80000e48 <print_num+0x28>
    80000e94:	fef44783          	lbu	a5,-17(s0)
    80000e98:	03100713          	li	a4,49
    80000e9c:	40f707b3          	sub	a5,a4,a5
    80000ea0:	fb840713          	add	a4,s0,-72
    80000ea4:	97ba                	add	a5,a5,a4
    80000ea6:	853e                	mv	a0,a5
    80000ea8:	ee1ff0ef          	jal	80000d88 <puts>
    80000eac:	60e6                	ld	ra,88(sp)
    80000eae:	6446                	ld	s0,80(sp)
    80000eb0:	6125                	add	sp,sp,96
    80000eb2:	8082                	ret

0000000080000eb4 <trap>:
    80000eb4:	710d                	add	sp,sp,-352
    80000eb6:	ee86                	sd	ra,344(sp)
    80000eb8:	ea96                	sd	t0,336(sp)
    80000eba:	e69a                	sd	t1,328(sp)
    80000ebc:	e29e                	sd	t2,320(sp)
    80000ebe:	fe22                	sd	s0,312(sp)
    80000ec0:	fa2a                	sd	a0,304(sp)
    80000ec2:	f62e                	sd	a1,296(sp)
    80000ec4:	f232                	sd	a2,288(sp)
    80000ec6:	ee36                	sd	a3,280(sp)
    80000ec8:	ea3a                	sd	a4,272(sp)
    80000eca:	e63e                	sd	a5,264(sp)
    80000ecc:	e242                	sd	a6,256(sp)
    80000ece:	fdc6                	sd	a7,248(sp)
    80000ed0:	f9f2                	sd	t3,240(sp)
    80000ed2:	f5f6                	sd	t4,232(sp)
    80000ed4:	f1fa                	sd	t5,224(sp)
    80000ed6:	edfe                	sd	t6,216(sp)
    80000ed8:	a582                	fsd	ft0,200(sp)
    80000eda:	a186                	fsd	ft1,192(sp)
    80000edc:	bd0a                	fsd	ft2,184(sp)
    80000ede:	b90e                	fsd	ft3,176(sp)
    80000ee0:	b512                	fsd	ft4,168(sp)
    80000ee2:	b116                	fsd	ft5,160(sp)
    80000ee4:	ad1a                	fsd	ft6,152(sp)
    80000ee6:	a91e                	fsd	ft7,144(sp)
    80000ee8:	a52a                	fsd	fa0,136(sp)
    80000eea:	a12e                	fsd	fa1,128(sp)
    80000eec:	bcb2                	fsd	fa2,120(sp)
    80000eee:	b8b6                	fsd	fa3,112(sp)
    80000ef0:	b4ba                	fsd	fa4,104(sp)
    80000ef2:	b0be                	fsd	fa5,96(sp)
    80000ef4:	acc2                	fsd	fa6,88(sp)
    80000ef6:	a8c6                	fsd	fa7,80(sp)
    80000ef8:	a4f2                	fsd	ft8,72(sp)
    80000efa:	a0f6                	fsd	ft9,64(sp)
    80000efc:	bc7a                	fsd	ft10,56(sp)
    80000efe:	b87e                	fsd	ft11,48(sp)
    80000f00:	1280                	add	s0,sp,352
    80000f02:	ec043423          	sd	zero,-312(s0)
    80000f06:	ec043023          	sd	zero,-320(s0)
    80000f0a:	ea043c23          	sd	zero,-328(s0)
    80000f0e:	ea043823          	sd	zero,-336(s0)
    80000f12:	ea043423          	sd	zero,-344(s0)
    80000f16:	342027f3          	csrr	a5,mcause
    80000f1a:	ecf43423          	sd	a5,-312(s0)
    80000f1e:	ec843783          	ld	a5,-312(s0)
    80000f22:	0407d663          	bgez	a5,80000f6e <trap+0xba>
    80000f26:	ec843783          	ld	a5,-312(s0)
    80000f2a:	0ff7f713          	zext.b	a4,a5
    80000f2e:	479d                	li	a5,7
    80000f30:	10f71063          	bne	a4,a5,80001030 <trap+0x17c>
    80000f34:	02000793          	li	a5,32
    80000f38:	3047a073          	csrs	mie,a5
    80000f3c:	02000793          	li	a5,32
    80000f40:	3447a073          	csrs	mip,a5
    80000f44:	0200c7b7          	lui	a5,0x200c
    80000f48:	17e1                	add	a5,a5,-8 # 200bff8 <_heap_size-0xdf70fd8>
    80000f4a:	639c                	ld	a5,0(a5)
    80000f4c:	eaf43423          	sd	a5,-344(s0)
    80000f50:	ea843703          	ld	a4,-344(s0)
    80000f54:	004c57b7          	lui	a5,0x4c5
    80000f58:	b4078793          	add	a5,a5,-1216 # 4c4b40 <_heap_size-0xfab8490>
    80000f5c:	97ba                	add	a5,a5,a4
    80000f5e:	eaf43423          	sd	a5,-344(s0)
    80000f62:	ea843783          	ld	a5,-344(s0)
    80000f66:	02004737          	lui	a4,0x2004
    80000f6a:	e31c                	sd	a5,0(a4)
    80000f6c:	a0d1                	j	80001030 <trap+0x17c>
    80000f6e:	ec843703          	ld	a4,-312(s0)
    80000f72:	47a5                	li	a5,9
    80000f74:	04f71563          	bne	a4,a5,80000fbe <trap+0x10a>
    80000f78:	87c6                	mv	a5,a7
    80000f7a:	ecf43023          	sd	a5,-320(s0)
    80000f7e:	00001517          	auipc	a0,0x1
    80000f82:	15250513          	add	a0,a0,338 # 800020d0 <_rodata_start+0xd0>
    80000f86:	e03ff0ef          	jal	80000d88 <puts>
    80000f8a:	ec043703          	ld	a4,-320(s0)
    80000f8e:	12300793          	li	a5,291
    80000f92:	00f71863          	bne	a4,a5,80000fa2 <trap+0xee>
    80000f96:	02000793          	li	a5,32
    80000f9a:	3047b073          	csrc	mie,a5
    80000f9e:	3447b073          	csrc	mip,a5
    80000fa2:	341027f3          	csrr	a5,mepc
    80000fa6:	eaf43823          	sd	a5,-336(s0)
    80000faa:	eb043783          	ld	a5,-336(s0)
    80000fae:	0791                	add	a5,a5,4
    80000fb0:	eaf43823          	sd	a5,-336(s0)
    80000fb4:	eb043783          	ld	a5,-336(s0)
    80000fb8:	34179073          	csrw	mepc,a5
    80000fbc:	a89d                	j	80001032 <trap+0x17e>
    80000fbe:	343027f3          	csrr	a5,mtval
    80000fc2:	eaf43c23          	sd	a5,-328(s0)
    80000fc6:	341027f3          	csrr	a5,mepc
    80000fca:	eaf43823          	sd	a5,-336(s0)
    80000fce:	00001517          	auipc	a0,0x1
    80000fd2:	10a50513          	add	a0,a0,266 # 800020d8 <_rodata_start+0xd8>
    80000fd6:	db3ff0ef          	jal	80000d88 <puts>
    80000fda:	eb043503          	ld	a0,-336(s0)
    80000fde:	e43ff0ef          	jal	80000e20 <print_num>
    80000fe2:	00001517          	auipc	a0,0x1
    80000fe6:	0fe50513          	add	a0,a0,254 # 800020e0 <_rodata_start+0xe0>
    80000fea:	d9fff0ef          	jal	80000d88 <puts>
    80000fee:	00001517          	auipc	a0,0x1
    80000ff2:	0fa50513          	add	a0,a0,250 # 800020e8 <_rodata_start+0xe8>
    80000ff6:	d93ff0ef          	jal	80000d88 <puts>
    80000ffa:	eb843503          	ld	a0,-328(s0)
    80000ffe:	e23ff0ef          	jal	80000e20 <print_num>
    80001002:	00001517          	auipc	a0,0x1
    80001006:	0de50513          	add	a0,a0,222 # 800020e0 <_rodata_start+0xe0>
    8000100a:	d7fff0ef          	jal	80000d88 <puts>
    8000100e:	00001517          	auipc	a0,0x1
    80001012:	0e250513          	add	a0,a0,226 # 800020f0 <_rodata_start+0xf0>
    80001016:	d73ff0ef          	jal	80000d88 <puts>
    8000101a:	ec843503          	ld	a0,-312(s0)
    8000101e:	e03ff0ef          	jal	80000e20 <print_num>
    80001022:	00001517          	auipc	a0,0x1
    80001026:	0be50513          	add	a0,a0,190 # 800020e0 <_rodata_start+0xe0>
    8000102a:	d5fff0ef          	jal	80000d88 <puts>
    8000102e:	a001                	j	8000102e <trap+0x17a>
    80001030:	0001                	nop
    80001032:	60f6                	ld	ra,344(sp)
    80001034:	62d6                	ld	t0,336(sp)
    80001036:	6336                	ld	t1,328(sp)
    80001038:	6396                	ld	t2,320(sp)
    8000103a:	7472                	ld	s0,312(sp)
    8000103c:	7552                	ld	a0,304(sp)
    8000103e:	75b2                	ld	a1,296(sp)
    80001040:	7612                	ld	a2,288(sp)
    80001042:	66f2                	ld	a3,280(sp)
    80001044:	6752                	ld	a4,272(sp)
    80001046:	67b2                	ld	a5,264(sp)
    80001048:	6812                	ld	a6,256(sp)
    8000104a:	78ee                	ld	a7,248(sp)
    8000104c:	7e4e                	ld	t3,240(sp)
    8000104e:	7eae                	ld	t4,232(sp)
    80001050:	7f0e                	ld	t5,224(sp)
    80001052:	6fee                	ld	t6,216(sp)
    80001054:	202e                	fld	ft0,200(sp)
    80001056:	208e                	fld	ft1,192(sp)
    80001058:	316a                	fld	ft2,184(sp)
    8000105a:	31ca                	fld	ft3,176(sp)
    8000105c:	322a                	fld	ft4,168(sp)
    8000105e:	328a                	fld	ft5,160(sp)
    80001060:	236a                	fld	ft6,152(sp)
    80001062:	23ca                	fld	ft7,144(sp)
    80001064:	252a                	fld	fa0,136(sp)
    80001066:	258a                	fld	fa1,128(sp)
    80001068:	3666                	fld	fa2,120(sp)
    8000106a:	36c6                	fld	fa3,112(sp)
    8000106c:	3726                	fld	fa4,104(sp)
    8000106e:	3786                	fld	fa5,96(sp)
    80001070:	2866                	fld	fa6,88(sp)
    80001072:	28c6                	fld	fa7,80(sp)
    80001074:	2e26                	fld	ft8,72(sp)
    80001076:	2e86                	fld	ft9,64(sp)
    80001078:	3f62                	fld	ft10,56(sp)
    8000107a:	3fc2                	fld	ft11,48(sp)
    8000107c:	6135                	add	sp,sp,352
    8000107e:	30200073          	mret

0000000080001082 <strap>:
    80001082:	7129                	add	sp,sp,-320
    80001084:	fe06                	sd	ra,312(sp)
    80001086:	fa16                	sd	t0,304(sp)
    80001088:	f61a                	sd	t1,296(sp)
    8000108a:	f21e                	sd	t2,288(sp)
    8000108c:	ee22                	sd	s0,280(sp)
    8000108e:	ea2a                	sd	a0,272(sp)
    80001090:	e62e                	sd	a1,264(sp)
    80001092:	e232                	sd	a2,256(sp)
    80001094:	fdb6                	sd	a3,248(sp)
    80001096:	f9ba                	sd	a4,240(sp)
    80001098:	f5be                	sd	a5,232(sp)
    8000109a:	f1c2                	sd	a6,224(sp)
    8000109c:	edc6                	sd	a7,216(sp)
    8000109e:	e9f2                	sd	t3,208(sp)
    800010a0:	e5f6                	sd	t4,200(sp)
    800010a2:	e1fa                	sd	t5,192(sp)
    800010a4:	fd7e                	sd	t6,184(sp)
    800010a6:	b502                	fsd	ft0,168(sp)
    800010a8:	b106                	fsd	ft1,160(sp)
    800010aa:	ad0a                	fsd	ft2,152(sp)
    800010ac:	a90e                	fsd	ft3,144(sp)
    800010ae:	a512                	fsd	ft4,136(sp)
    800010b0:	a116                	fsd	ft5,128(sp)
    800010b2:	bc9a                	fsd	ft6,120(sp)
    800010b4:	b89e                	fsd	ft7,112(sp)
    800010b6:	b4aa                	fsd	fa0,104(sp)
    800010b8:	b0ae                	fsd	fa1,96(sp)
    800010ba:	acb2                	fsd	fa2,88(sp)
    800010bc:	a8b6                	fsd	fa3,80(sp)
    800010be:	a4ba                	fsd	fa4,72(sp)
    800010c0:	a0be                	fsd	fa5,64(sp)
    800010c2:	bc42                	fsd	fa6,56(sp)
    800010c4:	b846                	fsd	fa7,48(sp)
    800010c6:	b472                	fsd	ft8,40(sp)
    800010c8:	b076                	fsd	ft9,32(sp)
    800010ca:	ac7a                	fsd	ft10,24(sp)
    800010cc:	a87e                	fsd	ft11,16(sp)
    800010ce:	0280                	add	s0,sp,320
    800010d0:	ec043423          	sd	zero,-312(s0)
    800010d4:	142027f3          	csrr	a5,scause
    800010d8:	ecf43423          	sd	a5,-312(s0)
    800010dc:	ec843783          	ld	a5,-312(s0)
    800010e0:	0207d363          	bgez	a5,80001106 <strap+0x84>
    800010e4:	ec843783          	ld	a5,-312(s0)
    800010e8:	0ff7f713          	zext.b	a4,a5
    800010ec:	4795                	li	a5,5
    800010ee:	00f71c63          	bne	a4,a5,80001106 <strap+0x84>
    800010f2:	00001517          	auipc	a0,0x1
    800010f6:	00e50513          	add	a0,a0,14 # 80002100 <_rodata_start+0x100>
    800010fa:	c8fff0ef          	jal	80000d88 <puts>
    800010fe:	12300893          	li	a7,291
    80001102:	00000073          	ecall
    80001106:	0001                	nop
    80001108:	70f2                	ld	ra,312(sp)
    8000110a:	72d2                	ld	t0,304(sp)
    8000110c:	7332                	ld	t1,296(sp)
    8000110e:	7392                	ld	t2,288(sp)
    80001110:	6472                	ld	s0,280(sp)
    80001112:	6552                	ld	a0,272(sp)
    80001114:	65b2                	ld	a1,264(sp)
    80001116:	6612                	ld	a2,256(sp)
    80001118:	76ee                	ld	a3,248(sp)
    8000111a:	774e                	ld	a4,240(sp)
    8000111c:	77ae                	ld	a5,232(sp)
    8000111e:	780e                	ld	a6,224(sp)
    80001120:	68ee                	ld	a7,216(sp)
    80001122:	6e4e                	ld	t3,208(sp)
    80001124:	6eae                	ld	t4,200(sp)
    80001126:	6f0e                	ld	t5,192(sp)
    80001128:	7fea                	ld	t6,184(sp)
    8000112a:	302a                	fld	ft0,168(sp)
    8000112c:	308a                	fld	ft1,160(sp)
    8000112e:	216a                	fld	ft2,152(sp)
    80001130:	21ca                	fld	ft3,144(sp)
    80001132:	222a                	fld	ft4,136(sp)
    80001134:	228a                	fld	ft5,128(sp)
    80001136:	3366                	fld	ft6,120(sp)
    80001138:	33c6                	fld	ft7,112(sp)
    8000113a:	3526                	fld	fa0,104(sp)
    8000113c:	3586                	fld	fa1,96(sp)
    8000113e:	2666                	fld	fa2,88(sp)
    80001140:	26c6                	fld	fa3,80(sp)
    80001142:	2726                	fld	fa4,72(sp)
    80001144:	2786                	fld	fa5,64(sp)
    80001146:	3862                	fld	fa6,56(sp)
    80001148:	38c2                	fld	fa7,48(sp)
    8000114a:	3e22                	fld	ft8,40(sp)
    8000114c:	3e82                	fld	ft9,32(sp)
    8000114e:	2f62                	fld	ft10,24(sp)
    80001150:	2fc2                	fld	ft11,16(sp)
    80001152:	6131                	add	sp,sp,320
    80001154:	10200073          	sret

0000000080001158 <kernel_main>:
    80001158:	1141                	add	sp,sp,-16
    8000115a:	e406                	sd	ra,8(sp)
    8000115c:	e022                	sd	s0,0(sp)
    8000115e:	0800                	add	s0,sp,16
    80001160:	95aff0ef          	jal	800002ba <init_pages>
    80001164:	ab1ff0ef          	jal	80000c14 <map_kernel>
    80001168:	00001517          	auipc	a0,0x1
    8000116c:	fa850513          	add	a0,a0,-88 # 80002110 <_rodata_start+0x110>
    80001170:	c19ff0ef          	jal	80000d88 <puts>
    80001174:	4781                	li	a5,0
    80001176:	853e                	mv	a0,a5
    80001178:	60a2                	ld	ra,8(sp)
    8000117a:	6402                	ld	s0,0(sp)
    8000117c:	0141                	add	sp,sp,16
    8000117e:	8082                	ret

0000000080001180 <supervisor_m>:
    80001180:	1101                	add	sp,sp,-32
    80001182:	ec06                	sd	ra,24(sp)
    80001184:	e822                	sd	s0,16(sp)
    80001186:	1000                	add	s0,sp,32
    80001188:	fe043423          	sd	zero,-24(s0)
    8000118c:	00001517          	auipc	a0,0x1
    80001190:	f9c50513          	add	a0,a0,-100 # 80002128 <_rodata_start+0x128>
    80001194:	bf5ff0ef          	jal	80000d88 <puts>
    80001198:	fe043423          	sd	zero,-24(s0)
    8000119c:	a035                	j	800011c8 <supervisor_m+0x48>
    8000119e:	00001517          	auipc	a0,0x1
    800011a2:	faa50513          	add	a0,a0,-86 # 80002148 <_rodata_start+0x148>
    800011a6:	be3ff0ef          	jal	80000d88 <puts>
    800011aa:	fe843503          	ld	a0,-24(s0)
    800011ae:	c73ff0ef          	jal	80000e20 <print_num>
    800011b2:	00001517          	auipc	a0,0x1
    800011b6:	f2e50513          	add	a0,a0,-210 # 800020e0 <_rodata_start+0xe0>
    800011ba:	bcfff0ef          	jal	80000d88 <puts>
    800011be:	fe843783          	ld	a5,-24(s0)
    800011c2:	0785                	add	a5,a5,1
    800011c4:	fef43423          	sd	a5,-24(s0)
    800011c8:	fe843703          	ld	a4,-24(s0)
    800011cc:	000f47b7          	lui	a5,0xf4
    800011d0:	23f78793          	add	a5,a5,575 # f423f <_heap_size-0xfe88d91>
    800011d4:	fce7f5e3          	bgeu	a5,a4,8000119e <supervisor_m+0x1e>
    800011d8:	0001                	nop
    800011da:	853e                	mv	a0,a5
    800011dc:	60e2                	ld	ra,24(sp)
    800011de:	6442                	ld	s0,16(sp)
    800011e0:	6105                	add	sp,sp,32
    800011e2:	8082                	ret
